; Function Attrs: nounwind uwtable
define hidden void @lj_ctype_freestate(ptr noundef captures(none) %0) local_unnamed_addr #0 {
  %2 = getelementptr inbounds nuw i8, ptr %0, i64 384
  %3 = load i64, ptr %2, align 8, !tbaa !56
  %.not = icmp eq i64 %3, 0
  br i1 %.not, label %34, label %4

4:                                                ; preds = %1
  %5 = inttoptr i64 %3 to ptr
  tail call void @lj_ccallback_mcode_free(ptr noundef nonnull %5) #14
  %6 = load ptr, ptr %5, align 8, !tbaa !19
  %7 = getelementptr inbounds nuw i8, ptr %5, i64 12
  %8 = load i32, ptr %7, align 4, !tbaa !17
  %9 = zext i32 %8 to i64
  %10 = mul nuw nsw i64 %9, 24
  %11 = getelementptr inbounds nuw i8, ptr %0, i64 16
  %12 = load i64, ptr %11, align 8, !tbaa !88
  %13 = sub i64 %12, %10
  store i64 %13, ptr %11, align 8, !tbaa !88
  %14 = load ptr, ptr %0, align 8, !tbaa !89
  %15 = getelementptr inbounds nuw i8, ptr %0, i64 8
  %16 = load ptr, ptr %15, align 8, !tbaa !90
  %17 = tail call ptr %14(ptr noundef %16, ptr noundef %6, i64 noundef range(i64 0, 103079215081) %10, i64 noundef 0) #14
  %18 = getelementptr inbounds nuw i8, ptr %5, i64 184
  %19 = load ptr, ptr %18, align 8, !tbaa !91
  %20 = getelementptr inbounds nuw i8, ptr %5, i64 192
  %21 = load i32, ptr %20, align 8, !tbaa !92
  %22 = zext i32 %21 to i64
  %23 = shl nuw nsw i64 %22, 1
  %24 = load i64, ptr %11, align 8, !tbaa !88
  %25 = sub i64 %24, %23
  store i64 %25, ptr %11, align 8, !tbaa !88
  %26 = load ptr, ptr %0, align 8, !tbaa !89
  %27 = load ptr, ptr %15, align 8, !tbaa !90
  %28 = tail call ptr %26(ptr noundef %27, ptr noundef %19, i64 noundef range(i64 0, 103079215081) %23, i64 noundef 0) #14
  %29 = load i64, ptr %11, align 8, !tbaa !88
  %30 = add i64 %29, -464
  store i64 %30, ptr %11, align 8, !tbaa !88
  %31 = load ptr, ptr %0, align 8, !tbaa !89
  %32 = load ptr, ptr %15, align 8, !tbaa !90
  %33 = tail call ptr %31(ptr noundef %32, ptr noundef nonnull %5, i64 noundef 464, i64 noundef 0) #14
  br label %34

34:                                               ; preds = %4, %1
  ret void
}